; Function Attrs: mustprogress nounwind uwtable
define void @_ZN3net30QuicMultipathSentPacketManagerD2Ev(ptr noundef nonnull align 8 captures(none) dereferenceable(40) initializes((0, 8)) %0) unnamed_addr #2 align 2 personality ptr @__gxx_personality_v0 {
  %2 = alloca %"struct.net::QuicMultipathSentPacketManager::PathSentPacketManagerInfo", align 8
  store ptr getelementptr inbounds nuw inrange(-16, 312) (i8, ptr @_ZTVN3net30QuicMultipathSentPacketManagerE, i64 16), ptr %0, align 8, !tbaa !3
  %3 = getelementptr inbounds nuw i8, ptr %0, i64 8
  %4 = load ptr, ptr %3, align 8, !tbaa !20
  %5 = getelementptr inbounds nuw i8, ptr %0, i64 16
  %6 = load ptr, ptr %5, align 8, !tbaa !20
  %.not6 = icmp eq ptr %4, %6
  br i1 %.not6, label %._crit_edge, label %.lr.ph

._crit_edge.loopexit:                             ; preds = %16
  %.pre = load ptr, ptr %3, align 8, !tbaa !19
  br label %._crit_edge

._crit_edge:                                      ; preds = %._crit_edge.loopexit, %1
  %7 = phi ptr [ %.pre, %._crit_edge.loopexit ], [ %4, %1 ]
  %.not.i.i.i = icmp eq ptr %7, null
  br i1 %.not.i.i.i, label %_ZNSt6vectorIN3net30QuicMultipathSentPacketManager25PathSentPacketManagerInfoESaIS2_EED2Ev.exit, label %8

8:                                                ; preds = %._crit_edge
  call void @_ZdlPv(ptr noundef nonnull %7) #18
  br label %_ZNSt6vectorIN3net30QuicMultipathSentPacketManager25PathSentPacketManagerInfoESaIS2_EED2Ev.exit

_ZNSt6vectorIN3net30QuicMultipathSentPacketManager25PathSentPacketManagerInfoESaIS2_EED2Ev.exit: ; preds = %._crit_edge, %8
  ret void

.lr.ph:                                           ; preds = %1, %16
  %.sroa.03.07 = phi ptr [ %17, %16 ], [ %4, %1 ]
  call void @llvm.lifetime.start.p0(i64 16, ptr nonnull %2) #17
  invoke void @_ZN3net30QuicMultipathSentPacketManager25PathSentPacketManagerInfoC1ERKS1_(ptr noundef nonnull align 8 dereferenceable(12) %2, ptr noundef nonnull align 8 dereferenceable(12) %.sroa.03.07)
          to label %9 unwind label %18

9:                                                ; preds = %.lr.ph
  %10 = load ptr, ptr %2, align 8, !tbaa !21
  %11 = icmp eq ptr %10, null
  br i1 %11, label %16, label %12

12:                                               ; preds = %9
  %13 = load ptr, ptr %10, align 8, !tbaa !3
  %14 = getelementptr inbounds nuw i8, ptr %13, i64 8
  %15 = load ptr, ptr %14, align 8
  call void %15(ptr noundef nonnull align 8 dereferenceable(8) %10) #17
  br label %16

16:                                               ; preds = %12, %9
  call void @llvm.lifetime.end.p0(i64 16, ptr nonnull %2) #17
  %17 = getelementptr inbounds nuw i8, ptr %.sroa.03.07, i64 16
  %.not = icmp eq ptr %17, %6
  br i1 %.not, label %._crit_edge.loopexit, label %.lr.ph

18:                                               ; preds = %.lr.ph
  %19 = landingpad { ptr, i32 }
          catch ptr null
  %20 = extractvalue { ptr, i32 } %19, 0
  call void @__clang_call_terminate(ptr %20) #19
  unreachable
}